target datalayout = "e-m:e-p270:32:32-p271:32:32-p272:64:64-i64:64-i128:128-f80:128-n8:16:32:64-S128"
target triple = "x86_64-pc-linux-gnu"

%"class.std::__cxx11::basic_string" = type { %"struct.std::__cxx11::basic_string<char>::_Alloc_hider", i64, %union.anon }
%"struct.std::__cxx11::basic_string<char>::_Alloc_hider" = type { ptr }
%union.anon = type { i64, [8 x i8] }
%"struct.std::_Rb_tree_header" = type { %"struct.std::_Rb_tree_node_base", i64 }
%"struct.std::_Rb_tree_node_base" = type { i32, ptr, ptr, ptr }
%"class.std::vector.260" = type { %"struct.std::_Vector_base.261" }
%"struct.std::_Vector_base.261" = type { %"struct.std::_Vector_base<std::__cxx11::basic_string<char>, std::allocator<std::__cxx11::basic_string<char>>>::_Vector_impl" }
%"struct.std::_Vector_base<std::__cxx11::basic_string<char>, std::allocator<std::__cxx11::basic_string<char>>>::_Vector_impl" = type { %"struct.std::_Vector_base<std::__cxx11::basic_string<char>, std::allocator<std::__cxx11::basic_string<char>>>::_Vector_impl_data" }
%"struct.std::_Vector_base<std::__cxx11::basic_string<char>, std::allocator<std::__cxx11::basic_string<char>>>::_Vector_impl_data" = type { ptr, ptr, ptr }
%class.cmListFileBacktrace = type { %class.cmConstStack }
%class.cmConstStack = type { %"class.std::shared_ptr" }
%"class.std::shared_ptr" = type { %"class.std::__shared_ptr" }
%"class.std::__shared_ptr" = type { ptr, %"class.std::__shared_count" }
%"class.std::__shared_count" = type { ptr }
%class.cmComputeLinkDepends = type { ptr, ptr, ptr, ptr, %"class.std::__cxx11::basic_string", i8, %"class.std::__cxx11::basic_string", i32, i32, %"class.std::vector", %"class.std::map.6", %"class.std::vector", %"class.std::map.11", %"class.std::map.17", %"class.std::queue", %"class.std::queue.26", %"class.std::set", %"class.std::vector.37", %struct.cmGraphAdjacencyList, %"class.std::vector.47", %"class.std::vector.49", %"class.std::map.54", %"class.std::unique_ptr", %"class.std::vector.49", %"class.std::vector.49", %"class.std::vector.49", i64 }
%"class.std::map.6" = type { %"class.std::_Rb_tree.7" }
%"class.std::_Rb_tree.7" = type { %"struct.std::_Rb_tree<std::__cxx11::basic_string<char>, std::pair<const std::__cxx11::basic_string<char>, std::__cxx11::basic_string<char>>, std::_Select1st<std::pair<const std::__cxx11::basic_string<char>, std::__cxx11::basic_string<char>>>, std::less<std::__cxx11::basic_string<char>>>::_Rb_tree_impl" }
%"struct.std::_Rb_tree<std::__cxx11::basic_string<char>, std::pair<const std::__cxx11::basic_string<char>, std::__cxx11::basic_string<char>>, std::_Select1st<std::pair<const std::__cxx11::basic_string<char>, std::__cxx11::basic_string<char>>>, std::less<std::__cxx11::basic_string<char>>>::_Rb_tree_impl" = type { [8 x i8], %"struct.std::_Rb_tree_header" }
%"class.std::vector" = type { %"struct.std::_Vector_base" }
%"struct.std::_Vector_base" = type { %"struct.std::_Vector_base<cmComputeLinkDepends::LinkEntry, std::allocator<cmComputeLinkDepends::LinkEntry>>::_Vector_impl" }
%"struct.std::_Vector_base<cmComputeLinkDepends::LinkEntry, std::allocator<cmComputeLinkDepends::LinkEntry>>::_Vector_impl" = type { %"struct.std::_Vector_base<cmComputeLinkDepends::LinkEntry, std::allocator<cmComputeLinkDepends::LinkEntry>>::_Vector_impl_data" }
%"struct.std::_Vector_base<cmComputeLinkDepends::LinkEntry, std::allocator<cmComputeLinkDepends::LinkEntry>>::_Vector_impl_data" = type { ptr, ptr, ptr }
%"class.std::map.11" = type { %"class.std::_Rb_tree.12" }
%"class.std::_Rb_tree.12" = type { %"struct.std::_Rb_tree<cmLinkItem, std::pair<const cmLinkItem, unsigned long>, std::_Select1st<std::pair<const cmLinkItem, unsigned long>>, std::less<cmLinkItem>>::_Rb_tree_impl" }
%"struct.std::_Rb_tree<cmLinkItem, std::pair<const cmLinkItem, unsigned long>, std::_Select1st<std::pair<const cmLinkItem, unsigned long>>, std::less<cmLinkItem>>::_Rb_tree_impl" = type { [8 x i8], %"struct.std::_Rb_tree_header" }
%"class.std::map.17" = type { %"class.std::_Rb_tree.18" }
%"class.std::_Rb_tree.18" = type { %"struct.std::_Rb_tree<unsigned long, std::pair<const unsigned long, std::vector<unsigned long>>, std::_Select1st<std::pair<const unsigned long, std::vector<unsigned long>>>, std::less<unsigned long>>::_Rb_tree_impl" }
%"struct.std::_Rb_tree<unsigned long, std::pair<const unsigned long, std::vector<unsigned long>>, std::_Select1st<std::pair<const unsigned long, std::vector<unsigned long>>>, std::less<unsigned long>>::_Rb_tree_impl" = type { [8 x i8], %"struct.std::_Rb_tree_header" }
%"class.std::queue" = type { %"class.std::deque" }
%"class.std::deque" = type { %"class.std::_Deque_base" }
%"class.std::_Deque_base" = type { %"struct.std::_Deque_base<cmComputeLinkDepends::BFSEntry, std::allocator<cmComputeLinkDepends::BFSEntry>>::_Deque_impl" }
%"struct.std::_Deque_base<cmComputeLinkDepends::BFSEntry, std::allocator<cmComputeLinkDepends::BFSEntry>>::_Deque_impl" = type { %"struct.std::_Deque_base<cmComputeLinkDepends::BFSEntry, std::allocator<cmComputeLinkDepends::BFSEntry>>::_Deque_impl_data" }
%"struct.std::_Deque_base<cmComputeLinkDepends::BFSEntry, std::allocator<cmComputeLinkDepends::BFSEntry>>::_Deque_impl_data" = type { ptr, i64, %"struct.std::_Deque_iterator", %"struct.std::_Deque_iterator" }
%"struct.std::_Deque_iterator" = type { ptr, ptr, ptr, ptr }
%"class.std::queue.26" = type { %"class.std::deque.27" }
%"class.std::deque.27" = type { %"class.std::_Deque_base.28" }
%"class.std::_Deque_base.28" = type { %"struct.std::_Deque_base<cmComputeLinkDepends::SharedDepEntry, std::allocator<cmComputeLinkDepends::SharedDepEntry>>::_Deque_impl" }
%"struct.std::_Deque_base<cmComputeLinkDepends::SharedDepEntry, std::allocator<cmComputeLinkDepends::SharedDepEntry>>::_Deque_impl" = type { %"struct.std::_Deque_base<cmComputeLinkDepends::SharedDepEntry, std::allocator<cmComputeLinkDepends::SharedDepEntry>>::_Deque_impl_data" }
%"struct.std::_Deque_base<cmComputeLinkDepends::SharedDepEntry, std::allocator<cmComputeLinkDepends::SharedDepEntry>>::_Deque_impl_data" = type { ptr, i64, %"struct.std::_Deque_iterator.32", %"struct.std::_Deque_iterator.32" }
%"struct.std::_Deque_iterator.32" = type { ptr, ptr, ptr, ptr }
%"class.std::set" = type { %"class.std::_Rb_tree.33" }
%"class.std::_Rb_tree.33" = type { %"struct.std::_Rb_tree<unsigned long, unsigned long, std::_Identity<unsigned long>, std::less<unsigned long>>::_Rb_tree_impl" }
%"struct.std::_Rb_tree<unsigned long, unsigned long, std::_Identity<unsigned long>, std::less<unsigned long>>::_Rb_tree_impl" = type { [8 x i8], %"struct.std::_Rb_tree_header" }
%"class.std::vector.37" = type { %"struct.std::_Vector_base.38" }
%"struct.std::_Vector_base.38" = type { %"struct.std::_Vector_base<cmComputeLinkDepends::DependSetList, std::allocator<cmComputeLinkDepends::DependSetList>>::_Vector_impl" }
%"struct.std::_Vector_base<cmComputeLinkDepends::DependSetList, std::allocator<cmComputeLinkDepends::DependSetList>>::_Vector_impl" = type { %"struct.std::_Vector_base<cmComputeLinkDepends::DependSetList, std::allocator<cmComputeLinkDepends::DependSetList>>::_Vector_impl_data" }
%"struct.std::_Vector_base<cmComputeLinkDepends::DependSetList, std::allocator<cmComputeLinkDepends::DependSetList>>::_Vector_impl_data" = type { ptr, ptr, ptr }
%struct.cmGraphAdjacencyList = type { %"class.std::vector.42" }
%"class.std::vector.42" = type { %"struct.std::_Vector_base.43" }
%"struct.std::_Vector_base.43" = type { %"struct.std::_Vector_base<cmGraphEdgeList, std::allocator<cmGraphEdgeList>>::_Vector_impl" }
%"struct.std::_Vector_base<cmGraphEdgeList, std::allocator<cmGraphEdgeList>>::_Vector_impl" = type { %"struct.std::_Vector_base<cmGraphEdgeList, std::allocator<cmGraphEdgeList>>::_Vector_impl_data" }
%"struct.std::_Vector_base<cmGraphEdgeList, std::allocator<cmGraphEdgeList>>::_Vector_impl_data" = type { ptr, ptr, ptr }
%"class.std::vector.47" = type { %"struct.std::_Vector_base.48" }
%"struct.std::_Vector_base.48" = type { %"struct.std::_Vector_base<char, std::allocator<char>>::_Vector_impl" }
%"struct.std::_Vector_base<char, std::allocator<char>>::_Vector_impl" = type { %"struct.std::_Vector_base<char, std::allocator<char>>::_Vector_impl_data" }
%"struct.std::_Vector_base<char, std::allocator<char>>::_Vector_impl_data" = type { ptr, ptr, ptr }
%"class.std::map.54" = type { %"class.std::_Rb_tree.55" }
%"class.std::_Rb_tree.55" = type { %"struct.std::_Rb_tree<unsigned long, std::pair<const unsigned long, cmComputeLinkDepends::PendingComponent>, std::_Select1st<std::pair<const unsigned long, cmComputeLinkDepends::PendingComponent>>, std::less<unsigned long>>::_Rb_tree_impl" }
%"struct.std::_Rb_tree<unsigned long, std::pair<const unsigned long, cmComputeLinkDepends::PendingComponent>, std::_Select1st<std::pair<const unsigned long, cmComputeLinkDepends::PendingComponent>>, std::less<unsigned long>>::_Rb_tree_impl" = type { [8 x i8], %"struct.std::_Rb_tree_header" }
%"class.std::unique_ptr" = type { %"struct.std::__uniq_ptr_data" }
%"struct.std::__uniq_ptr_data" = type { %"class.std::__uniq_ptr_impl" }
%"class.std::__uniq_ptr_impl" = type { %"class.std::tuple" }
%"class.std::tuple" = type { %"struct.std::_Tuple_impl" }
%"struct.std::_Tuple_impl" = type { %"struct.std::_Head_base.60" }
%"struct.std::_Head_base.60" = type { ptr }
%"class.std::vector.49" = type { %"struct.std::_Vector_base.50" }
%"struct.std::_Vector_base.50" = type { %"struct.std::_Vector_base<unsigned long, std::allocator<unsigned long>>::_Vector_impl" }
%"struct.std::_Vector_base<unsigned long, std::allocator<unsigned long>>::_Vector_impl" = type { %"struct.std::_Vector_base<unsigned long, std::allocator<unsigned long>>::_Vector_impl_data" }
%"struct.std::_Vector_base<unsigned long, std::allocator<unsigned long>>::_Vector_impl_data" = type { ptr, ptr, ptr }
%"struct.std::__detail::_Hash_node_base" = type { ptr }
%"struct.std::__detail::_Prime_rehash_policy" = type { float, i64 }
%"class.std::vector.758" = type { %"struct.std::_Vector_base.759" }
%"struct.std::_Vector_base.759" = type { %"struct.std::_Vector_base<cmLinkItem, std::allocator<cmLinkItem>>::_Vector_impl" }
%"struct.std::_Vector_base<cmLinkItem, std::allocator<cmLinkItem>>::_Vector_impl" = type { %"struct.std::_Vector_base<cmLinkItem, std::allocator<cmLinkItem>>::_Vector_impl_data" }
%"struct.std::_Vector_base<cmLinkItem, std::allocator<cmLinkItem>>::_Vector_impl_data" = type { ptr, ptr, ptr }
%"struct.cmComputeLinkDepends::LinkEntry" = type { %class.BT, ptr, ptr, i32, %"class.std::__cxx11::basic_string" }
%class.BT = type { %"class.std::__cxx11::basic_string", %class.cmListFileBacktrace }
%struct.cmLinkInterface = type <{ %struct.cmLinkInterfaceLibraries.base, [6 x i8], %"class.std::vector.260", %"class.std::unordered_map.763", %"class.std::vector.758", i32, i8, [3 x i8] }>
%struct.cmLinkInterfaceLibraries.base = type <{ %"class.std::vector.758", %"class.std::vector.758", %"class.std::vector.758", %"class.std::vector.758", i8, i8 }>
%"class.std::unordered_map.763" = type { %"class.std::_Hashtable.764" }
%"class.std::_Hashtable.764" = type { ptr, i64, %"struct.std::__detail::_Hash_node_base", i64, %"struct.std::__detail::_Prime_rehash_policy", ptr }
%"class.__gnu_cxx::__normal_iterator.815" = type { ptr }

; Function Attrs: mustprogress nounwind uwtable
define linkonce_odr dso_local noundef nonnull align 8 dereferenceable(8) ptr @_ZNK9__gnu_cxx17__normal_iteratorIPKmSt6vectorImSaImEEE4baseEv(ptr noundef nonnull align 8 dereferenceable(8) %0) #6 comdat align 2 {
  %2 = alloca ptr, align 8
  store ptr %0, ptr %2, align 8, !tbaa !645
  %3 = load ptr, ptr %2, align 8
  %4 = getelementptr inbounds nuw %"class.__gnu_cxx::__normal_iterator.815", ptr %3, i32 0, i32 0
  ret ptr %4
}

; Function Attrs: mustprogress nounwind uwtable
define linkonce_odr dso_local void @_ZN9__gnu_cxx17__normal_iteratorIPKmSt6vectorImSaImEEEC2ERKS2_(ptr noundef nonnull align 8 dereferenceable(8) %0, ptr noundef nonnull align 8 dereferenceable(8) %1) unnamed_addr #6 comdat align 2 {
  %3 = alloca ptr, align 8
  %4 = alloca ptr, align 8
  store ptr %0, ptr %3, align 8, !tbaa !645
  store ptr %1, ptr %4, align 8, !tbaa !1150
  %5 = load ptr, ptr %3, align 8
  %6 = getelementptr inbounds nuw %"class.__gnu_cxx::__normal_iterator.815", ptr %5, i32 0, i32 0
  %7 = load ptr, ptr %4, align 8, !tbaa !1150
  %8 = load ptr, ptr %7, align 8, !tbaa !482
  store ptr %8, ptr %6, align 8, !tbaa !657
  ret void
}

; Function Attrs: mustprogress nounwind uwtable
define linkonce_odr dso_local noundef nonnull align 8 dereferenceable(8) ptr @_ZN9__gnu_cxx17__normal_iteratorIPKmSt6vectorImSaImEEEppEv(ptr noundef nonnull align 8 dereferenceable(8) %0) #6 comdat align 2 {
  %2 = alloca ptr, align 8
  store ptr %0, ptr %2, align 8, !tbaa !645
  %3 = load ptr, ptr %2, align 8
  %4 = getelementptr inbounds nuw %"class.__gnu_cxx::__normal_iterator.815", ptr %3, i32 0, i32 0
  %5 = load ptr, ptr %4, align 8, !tbaa !657
  %6 = getelementptr inbounds nuw i64, ptr %5, i32 1
  store ptr %6, ptr %4, align 8, !tbaa !657
  ret ptr %3
}

; Function Attrs: mustprogress nounwind uwtable
define linkonce_odr dso_local noundef nonnull align 8 dereferenceable(104) ptr @_ZNSt6vectorIN20cmComputeLinkDepends9LinkEntryESaIS1_EEixEm(ptr noundef nonnull align 8 dereferenceable(24) %0, i64 noundef %1) #6 comdat align 2 {
  %3 = alloca ptr, align 8
  %4 = alloca i64, align 8
  store ptr %0, ptr %3, align 8, !tbaa !378
  store i64 %1, ptr %4, align 8, !tbaa !17
  %5 = load ptr, ptr %3, align 8
  %6 = getelementptr inbounds nuw %"struct.std::_Vector_base", ptr %5, i32 0, i32 0
  %7 = getelementptr inbounds nuw %"struct.std::_Vector_base<cmComputeLinkDepends::LinkEntry, std::allocator<cmComputeLinkDepends::LinkEntry>>::_Vector_impl_data", ptr %6, i32 0, i32 0
  %8 = load ptr, ptr %7, align 8, !tbaa !433
  %9 = load i64, ptr %4, align 8, !tbaa !17
  %10 = getelementptr inbounds nuw %"struct.cmComputeLinkDepends::LinkEntry", ptr %8, i64 %9
  ret ptr %10
}

; Function Attrs: mustprogress nounwind uwtable
define linkonce_odr dso_local noundef nonnull align 8 dereferenceable(8) ptr @_ZNK9__gnu_cxx17__normal_iteratorIPKmSt6vectorImSaImEEEdeEv(ptr noundef nonnull align 8 dereferenceable(8) %0) #6 comdat align 2 {
  %2 = alloca ptr, align 8
  store ptr %0, ptr %2, align 8, !tbaa !645
  %3 = load ptr, ptr %2, align 8
  %4 = getelementptr inbounds nuw %"class.__gnu_cxx::__normal_iterator.815", ptr %3, i32 0, i32 0
  %5 = load ptr, ptr %4, align 8, !tbaa !657
  ret ptr %5
}

; Function Attrs: inlinehint mustprogress nounwind uwtable
define linkonce_odr dso_local noundef zeroext i1 @_ZN9__gnu_cxxneIPKmSt6vectorImSaImEEEEbRKNS_17__normal_iteratorIT_T0_EESB_(ptr noundef nonnull align 8 dereferenceable(8) %0, ptr noundef nonnull align 8 dereferenceable(8) %1) #9 comdat {
  %3 = alloca ptr, align 8
  %4 = alloca ptr, align 8
  store ptr %0, ptr %3, align 8, !tbaa !645
  store ptr %1, ptr %4, align 8, !tbaa !645
  %5 = load ptr, ptr %3, align 8, !tbaa !645
  %6 = call noundef nonnull align 8 dereferenceable(8) ptr @_ZNK9__gnu_cxx17__normal_iteratorIPKmSt6vectorImSaImEEE4baseEv(ptr noundef nonnull align 8 dereferenceable(8) %5) #3
  %7 = load ptr, ptr %6, align 8, !tbaa !482
  %8 = load ptr, ptr %4, align 8, !tbaa !645
  %9 = call noundef nonnull align 8 dereferenceable(8) ptr @_ZNK9__gnu_cxx17__normal_iteratorIPKmSt6vectorImSaImEEE4baseEv(ptr noundef nonnull align 8 dereferenceable(8) %8) #3
  %10 = load ptr, ptr %9, align 8, !tbaa !482
  %11 = icmp ne ptr %7, %10
  ret i1 %11
}

; Function Attrs: mustprogress nounwind uwtable
define linkonce_odr dso_local ptr @_ZNKSt6vectorImSaImEE3endEv(ptr noundef nonnull align 8 dereferenceable(24) %0) #6 comdat align 2 {
  %2 = alloca %"class.__gnu_cxx::__normal_iterator.815", align 8
  %3 = alloca ptr, align 8
  store ptr %0, ptr %3, align 8, !tbaa !398
  %4 = load ptr, ptr %3, align 8
  %5 = getelementptr inbounds nuw %"struct.std::_Vector_base.50", ptr %4, i32 0, i32 0
  %6 = getelementptr inbounds nuw %"struct.std::_Vector_base<unsigned long, std::allocator<unsigned long>>::_Vector_impl_data", ptr %5, i32 0, i32 1
  call void @_ZN9__gnu_cxx17__normal_iteratorIPKmSt6vectorImSaImEEEC2ERKS2_(ptr noundef nonnull align 8 dereferenceable(8) %2, ptr noundef nonnull align 8 dereferenceable(8) %6) #3
  %7 = getelementptr inbounds nuw %"class.__gnu_cxx::__normal_iterator.815", ptr %2, i32 0, i32 0
  %8 = load ptr, ptr %7, align 8
  ret ptr %8
}

; Function Attrs: mustprogress nounwind uwtable
define linkonce_odr dso_local ptr @_ZNKSt6vectorImSaImEE5beginEv(ptr noundef nonnull align 8 dereferenceable(24) %0) #6 comdat align 2 {
  %2 = alloca %"class.__gnu_cxx::__normal_iterator.815", align 8
  %3 = alloca ptr, align 8
  store ptr %0, ptr %3, align 8, !tbaa !398
  %4 = load ptr, ptr %3, align 8
  %5 = getelementptr inbounds nuw %"struct.std::_Vector_base.50", ptr %4, i32 0, i32 0
  %6 = getelementptr inbounds nuw %"struct.std::_Vector_base<unsigned long, std::allocator<unsigned long>>::_Vector_impl_data", ptr %5, i32 0, i32 0
  call void @_ZN9__gnu_cxx17__normal_iteratorIPKmSt6vectorImSaImEEEC2ERKS2_(ptr noundef nonnull align 8 dereferenceable(8) %2, ptr noundef nonnull align 8 dereferenceable(8) %6) #3
  %7 = getelementptr inbounds nuw %"class.__gnu_cxx::__normal_iterator.815", ptr %2, i32 0, i32 0
  %8 = load ptr, ptr %7, align 8
  ret ptr %8
}

; Function Attrs: mustprogress uwtable
define dso_local noundef i64 @_ZN20cmComputeLinkDepends21ComputeComponentCountERK15cmGraphNodeList(ptr noundef nonnull align 8 dereferenceable(744) %0, ptr noundef nonnull align 8 dereferenceable(24) %1) #5 align 2 {
  %3 = alloca ptr, align 8
  %4 = alloca ptr, align 8
  %5 = alloca i64, align 8
  %6 = alloca ptr, align 8
  %7 = alloca %"class.__gnu_cxx::__normal_iterator.815", align 8
  %8 = alloca %"class.__gnu_cxx::__normal_iterator.815", align 8
  %9 = alloca i64, align 8
  %10 = alloca ptr, align 8
  %11 = alloca ptr, align 8
  store ptr %0, ptr %3, align 8, !tbaa !25
  store ptr %1, ptr %4, align 8, !tbaa !493
  %12 = load ptr, ptr %3, align 8
  call void @llvm.lifetime.start.p0(i64 8, ptr %5) #3
  store i64 2, ptr %5, align 8, !tbaa !17
  call void @llvm.lifetime.start.p0(i64 8, ptr %6) #3
  %13 = load ptr, ptr %4, align 8, !tbaa !493
  store ptr %13, ptr %6, align 8, !tbaa !493
  call void @llvm.lifetime.start.p0(i64 8, ptr %7) #3
  %14 = load ptr, ptr %6, align 8, !tbaa !493
  %15 = call ptr @_ZNKSt6vectorImSaImEE5beginEv(ptr noundef nonnull align 8 dereferenceable(24) %14) #3
  %16 = getelementptr inbounds nuw %"class.__gnu_cxx::__normal_iterator.815", ptr %7, i32 0, i32 0
  store ptr %15, ptr %16, align 8
  call void @llvm.lifetime.start.p0(i64 8, ptr %8) #3
  %17 = load ptr, ptr %6, align 8, !tbaa !493
  %18 = call ptr @_ZNKSt6vectorImSaImEE3endEv(ptr noundef nonnull align 8 dereferenceable(24) %17) #3
  %19 = getelementptr inbounds nuw %"class.__gnu_cxx::__normal_iterator.815", ptr %8, i32 0, i32 0
  store ptr %18, ptr %19, align 8
  br label %20

20:                                               ; preds = %56, %2
  %21 = call noundef zeroext i1 @_ZN9__gnu_cxxneIPKmSt6vectorImSaImEEEEbRKNS_17__normal_iteratorIT_T0_EESB_(ptr noundef nonnull align 8 dereferenceable(8) %7, ptr noundef nonnull align 8 dereferenceable(8) %8) #3
  br i1 %21, label %23, label %22

22:                                               ; preds = %20
  call void @llvm.lifetime.end.p0(i64 8, ptr %8) #3
  call void @llvm.lifetime.end.p0(i64 8, ptr %7) #3
  call void @llvm.lifetime.end.p0(i64 8, ptr %6) #3
  br label %58

23:                                               ; preds = %20
  call void @llvm.lifetime.start.p0(i64 8, ptr %9) #3
  %24 = call noundef nonnull align 8 dereferenceable(8) ptr @_ZNK9__gnu_cxx17__normal_iteratorIPKmSt6vectorImSaImEEEdeEv(ptr noundef nonnull align 8 dereferenceable(8) %7) #3
  %25 = load i64, ptr %24, align 8, !tbaa !17
  store i64 %25, ptr %9, align 8, !tbaa !17
  call void @llvm.lifetime.start.p0(i64 8, ptr %10) #3
  %26 = getelementptr inbounds nuw %class.cmComputeLinkDepends, ptr %12, i32 0, i32 11
  %27 = load i64, ptr %9, align 8, !tbaa !17
  %28 = call noundef nonnull align 8 dereferenceable(104) ptr @_ZNSt6vectorIN20cmComputeLinkDepends9LinkEntryESaIS1_EEixEm(ptr noundef nonnull align 8 dereferenceable(24) %26, i64 noundef %27) #3
  %29 = getelementptr inbounds nuw %"struct.cmComputeLinkDepends::LinkEntry", ptr %28, i32 0, i32 1
  %30 = load ptr, ptr %29, align 8, !tbaa !450
  store ptr %30, ptr %10, align 8, !tbaa !27
  %31 = load ptr, ptr %10, align 8, !tbaa !27
  %32 = icmp ne ptr %31, null
  br i1 %32, label %33, label %55

33:                                               ; preds = %23
  call void @llvm.lifetime.start.p0(i64 8, ptr %11) #3
  %34 = load ptr, ptr %10, align 8, !tbaa !27
  %35 = getelementptr inbounds nuw %class.cmComputeLinkDepends, ptr %12, i32 0, i32 4
  %36 = getelementptr inbounds nuw %class.cmComputeLinkDepends, ptr %12, i32 0, i32 0
  %37 = load ptr, ptr %36, align 8, !tbaa !31
  %38 = call noundef ptr @_ZNK17cmGeneratorTarget16GetLinkInterfaceERKNSt7__cxx1112basic_stringIcSt11char_traitsIcESaIcEEEPKS_(ptr noundef nonnull align 8 dereferenceable(2912) %34, ptr noundef nonnull align 8 dereferenceable(32) %35, ptr noundef %37)
  store ptr %38, ptr %11, align 8, !tbaa !455
  %39 = load ptr, ptr %11, align 8, !tbaa !455
  %40 = icmp ne ptr %39, null
  br i1 %40, label %41, label %54

41:                                               ; preds = %33
  %42 = load ptr, ptr %11, align 8, !tbaa !455
  %43 = getelementptr inbounds nuw %struct.cmLinkInterface, ptr %42, i32 0, i32 5
  %44 = load i32, ptr %43, align 8, !tbaa !688
  %45 = zext i32 %44 to i64
  %46 = load i64, ptr %5, align 8, !tbaa !17
  %47 = icmp ugt i64 %45, %46
  br i1 %47, label %48, label %53

48:                                               ; preds = %41
  %49 = load ptr, ptr %11, align 8, !tbaa !455
  %50 = getelementptr inbounds nuw %struct.cmLinkInterface, ptr %49, i32 0, i32 5
  %51 = load i32, ptr %50, align 8, !tbaa !688
  %52 = zext i32 %51 to i64
  store i64 %52, ptr %5, align 8, !tbaa !17
  br label %53

53:                                               ; preds = %48, %41
  br label %54

54:                                               ; preds = %53, %33
  call void @llvm.lifetime.end.p0(i64 8, ptr %11) #3
  br label %55

55:                                               ; preds = %54, %23
  call void @llvm.lifetime.end.p0(i64 8, ptr %10) #3
  call void @llvm.lifetime.end.p0(i64 8, ptr %9) #3
  br label %56

56:                                               ; preds = %55
  %57 = call noundef nonnull align 8 dereferenceable(8) ptr @_ZN9__gnu_cxx17__normal_iteratorIPKmSt6vectorImSaImEEEppEv(ptr noundef nonnull align 8 dereferenceable(8) %7) #3
  br label %20

58:                                               ; preds = %22
  %59 = load i64, ptr %5, align 8, !tbaa !17
  call void @llvm.lifetime.end.p0(i64 8, ptr %5) #3
  ret i64 %59
}