; Function Attrs: mustprogress uwtable
define dso_local noundef range(i64 2, 4294967296) i64 @_ZN20cmComputeLinkDepends21ComputeComponentCountERK15cmGraphNodeList(ptr noundef nonnull align 8 dereferenceable(744) %0, ptr noundef nonnull readonly align 8 captures(none) dereferenceable(24) %1) local_unnamed_addr #6 align 2 {
  %3 = load ptr, ptr %1, align 8, !tbaa !601
  %4 = getelementptr inbounds nuw i8, ptr %1, i64 8
  %5 = load ptr, ptr %4, align 8, !tbaa !601
  %.not1819 = icmp eq ptr %3, %5
  br i1 %.not1819, label %._crit_edge, label %.lr.ph

.lr.ph:                                           ; preds = %2
  %6 = getelementptr inbounds nuw i8, ptr %0, i64 184
  %7 = getelementptr inbounds nuw i8, ptr %0, i64 32
  br label %8

._crit_edge:                                      ; preds = %20, %2
  %.0.lcssa = phi i64 [ 2, %2 ], [ %.1, %20 ]
  ret i64 %.0.lcssa

8:                                                ; preds = %.lr.ph, %20
  %.021 = phi i64 [ 2, %.lr.ph ], [ %.1, %20 ]
  %.sroa.015.020 = phi ptr [ %3, %.lr.ph ], [ %21, %20 ]
  %9 = load i64, ptr %.sroa.015.020, align 8, !tbaa !342
  %10 = load ptr, ptr %6, align 8, !tbaa !409
  %11 = getelementptr inbounds nuw %"struct.cmComputeLinkDepends::LinkEntry", ptr %10, i64 %9, i32 1
  %12 = load ptr, ptr %11, align 8, !tbaa !611
  %.not = icmp eq ptr %12, null
  br i1 %.not, label %20, label %13

13:                                               ; preds = %8
  %14 = load ptr, ptr %0, align 8, !tbaa !13
  %15 = tail call noundef ptr @_ZNK17cmGeneratorTarget16GetLinkInterfaceERKNSt7__cxx1112basic_stringIcSt11char_traitsIcESaIcEEEPKS_(ptr noundef nonnull align 8 dereferenceable(2912) %12, ptr noundef nonnull align 8 dereferenceable(32) %7, ptr noundef %14)
  %.not14 = icmp eq ptr %15, null
  br i1 %.not14, label %20, label %16

16:                                               ; preds = %13
  %17 = getelementptr inbounds nuw i8, ptr %15, i64 208
  %18 = load i32, ptr %17, align 8, !tbaa !1327
  %19 = zext i32 %18 to i64
  %spec.select = tail call i64 @llvm.umax.i64(i64 %.021, i64 %19)
  br label %20

20:                                               ; preds = %16, %13, %8
  %.1 = phi i64 [ %.021, %8 ], [ %.021, %13 ], [ %spec.select, %16 ]
  %21 = getelementptr inbounds nuw i8, ptr %.sroa.015.020, i64 8
  %.not18 = icmp eq ptr %21, %5
  br i1 %.not18, label %._crit_edge, label %8
}